; Function Attrs: nofree norecurse nounwind memory(read, argmem: readwrite, inaccessiblemem: readwrite) uwtable
define void @ma_sound_set_fade_start_in_milliseconds(ptr noundef %0, float noundef %1, float noundef %2, i64 noundef %3, i64 noundef %4) local_unnamed_addr #63 {
  %6 = icmp eq ptr %0, null
  br i1 %6, label %24, label %ma_sound_get_engine.exit

ma_sound_get_engine.exit:                         ; preds = %5
  %7 = getelementptr inbounds nuw i8, ptr %0, i64 360
  %8 = load ptr, ptr %7, align 8, !tbaa !1813
  %9 = icmp eq ptr %8, null
  br i1 %9, label %ma_sound_set_fade_start_in_pcm_frames.exit, label %10

10:                                               ; preds = %ma_sound_get_engine.exit
  %11 = getelementptr inbounds nuw i8, ptr %8, i64 752
  %12 = load i32, ptr %11, align 8, !tbaa !1760
  %13 = zext i32 %12 to i64
  br label %ma_sound_set_fade_start_in_pcm_frames.exit

ma_sound_set_fade_start_in_pcm_frames.exit:       ; preds = %ma_sound_get_engine.exit, %10
  %.0.i8 = phi i64 [ %13, %10 ], [ 0, %ma_sound_get_engine.exit ]
  %14 = mul i64 %.0.i8, %3
  %15 = udiv i64 %14, 1000
  %16 = mul i64 %.0.i8, %4
  %17 = udiv i64 %16, 1000
  %18 = getelementptr inbounds nuw i8, ptr %0, i64 856
  %19 = bitcast float %1 to i32
  store atomic volatile i32 %19, ptr %18 seq_cst, align 4
  %20 = getelementptr inbounds nuw i8, ptr %0, i64 860
  %21 = bitcast float %2 to i32
  store atomic volatile i32 %21, ptr %20 seq_cst, align 4
  %22 = getelementptr inbounds nuw i8, ptr %0, i64 864
  store atomic i64 %15, ptr %22 seq_cst, align 8
  %23 = getelementptr inbounds nuw i8, ptr %0, i64 872
  store atomic i64 %17, ptr %23 seq_cst, align 8
  br label %24

24:                                               ; preds = %5, %ma_sound_set_fade_start_in_pcm_frames.exit
  ret void
}